target datalayout = "e-m:e-p270:32:32-p271:32:32-p272:64:64-i64:64-i128:128-f80:128-n8:16:32:64-S128"
target triple = "x86_64-pc-linux-gnu"

%struct.srtp_protection_profile_st = type { ptr, i64 }

@.str.4 = private unnamed_addr constant [117 x i8] c"generated/home/dtcxzyw/WorkSpace/Projects/compilers/llvm-opt-benchmark/bench/libquic/libquic/boringssl/ssl/d1_srtp.c\00", align 1

; Function Attrs: nounwind uwtable
define internal i32 @find_profile_by_name(ptr noundef %0, ptr noundef %1, i64 noundef %2) #0 {
  %4 = alloca i32, align 4
  %5 = alloca ptr, align 8
  %6 = alloca ptr, align 8
  %7 = alloca i64, align 8
  %8 = alloca ptr, align 8
  %9 = alloca i32, align 4
  store ptr %0, ptr %5, align 8, !tbaa !11
  store ptr %1, ptr %6, align 8, !tbaa !53
  store i64 %2, ptr %7, align 8, !tbaa !55
  call void @llvm.lifetime.start.p0(i64 8, ptr %8) #4
  store ptr @kSRTPProfiles, ptr %8, align 8, !tbaa !17
  br label %10

10:                                               ; preds = %33, %3
  %11 = load ptr, ptr %8, align 8, !tbaa !17
  %12 = getelementptr inbounds nuw %struct.srtp_protection_profile_st, ptr %11, i32 0, i32 0
  %13 = load ptr, ptr %12, align 8, !tbaa !56
  %14 = icmp ne ptr %13, null
  br i1 %14, label %15, label %36

15:                                               ; preds = %10
  %16 = load i64, ptr %7, align 8, !tbaa !55
  %17 = load ptr, ptr %8, align 8, !tbaa !17
  %18 = getelementptr inbounds nuw %struct.srtp_protection_profile_st, ptr %17, i32 0, i32 0
  %19 = load ptr, ptr %18, align 8, !tbaa !56
  %20 = call i64 @strlen(ptr noundef %19) #5
  %21 = icmp eq i64 %16, %20
  br i1 %21, label %22, label %33

22:                                               ; preds = %15
  %23 = load ptr, ptr %8, align 8, !tbaa !17
  %24 = getelementptr inbounds nuw %struct.srtp_protection_profile_st, ptr %23, i32 0, i32 0
  %25 = load ptr, ptr %24, align 8, !tbaa !56
  %26 = load ptr, ptr %5, align 8, !tbaa !11
  %27 = load i64, ptr %7, align 8, !tbaa !55
  %28 = call i32 @strncmp(ptr noundef %25, ptr noundef %26, i64 noundef %27) #5
  %29 = icmp ne i32 %28, 0
  br i1 %29, label %33, label %30

30:                                               ; preds = %22
  %31 = load ptr, ptr %8, align 8, !tbaa !17
  %32 = load ptr, ptr %6, align 8, !tbaa !53
  store ptr %31, ptr %32, align 8, !tbaa !17
  store i32 1, ptr %4, align 4
  store i32 1, ptr %9, align 4
  br label %37

33:                                               ; preds = %22, %15
  %34 = load ptr, ptr %8, align 8, !tbaa !17
  %35 = getelementptr inbounds nuw %struct.srtp_protection_profile_st, ptr %34, i32 1
  store ptr %35, ptr %8, align 8, !tbaa !17
  br label %10, !llvm.loop !58

36:                                               ; preds = %10
  store i32 0, ptr %4, align 4
  store i32 1, ptr %9, align 4
  br label %37

37:                                               ; preds = %36, %30
  call void @llvm.lifetime.end.p0(i64 8, ptr %8) #4
  %38 = load i32, ptr %4, align 4
  ret i32 %38
}

; Function Attrs: nounwind uwtable
define internal i32 @ssl_ctx_make_profiles(ptr noundef %0, ptr noundef %1) #0 {
  %3 = alloca i32, align 4
  %4 = alloca ptr, align 8
  %5 = alloca ptr, align 8
  %6 = alloca ptr, align 8
  %7 = alloca ptr, align 8
  %8 = alloca ptr, align 8
  %9 = alloca i32, align 4
  %10 = alloca ptr, align 8
  store ptr %0, ptr %4, align 8, !tbaa !11
  store ptr %1, ptr %5, align 8, !tbaa !13
  call void @llvm.lifetime.start.p0(i64 8, ptr %6) #4
  call void @llvm.lifetime.start.p0(i64 8, ptr %7) #4
  call void @llvm.lifetime.start.p0(i64 8, ptr %8) #4
  %11 = load ptr, ptr %4, align 8, !tbaa !11
  store ptr %11, ptr %8, align 8, !tbaa !11
  %12 = call ptr @sk_new_null()
  store ptr %12, ptr %6, align 8, !tbaa !15
  %13 = load ptr, ptr %6, align 8, !tbaa !15
  %14 = icmp eq ptr %13, null
  br i1 %14, label %15, label %16

15:                                               ; preds = %2
  call void @ERR_put_error(i32 noundef 16, i32 noundef 0, i32 noundef 211, ptr noundef @.str.4, i32 noundef 170)
  store i32 0, ptr %3, align 4
  store i32 1, ptr %9, align 4
  br label %57

16:                                               ; preds = %2
  br label %17

17:                                               ; preds = %51, %16
  call void @llvm.lifetime.start.p0(i64 8, ptr %10) #4
  %18 = load ptr, ptr %8, align 8, !tbaa !11
  %19 = call ptr @strchr(ptr noundef %18, i32 noundef 58) #5
  store ptr %19, ptr %7, align 8, !tbaa !11
  %20 = load ptr, ptr %8, align 8, !tbaa !11
  %21 = load ptr, ptr %7, align 8, !tbaa !11
  %22 = icmp ne ptr %21, null
  br i1 %22, label %23, label %29

23:                                               ; preds = %17
  %24 = load ptr, ptr %7, align 8, !tbaa !11
  %25 = load ptr, ptr %8, align 8, !tbaa !11
  %26 = ptrtoint ptr %24 to i64
  %27 = ptrtoint ptr %25 to i64
  %28 = sub i64 %26, %27
  br label %32

29:                                               ; preds = %17
  %30 = load ptr, ptr %8, align 8, !tbaa !11
  %31 = call i64 @strlen(ptr noundef %30) #5
  br label %32

32:                                               ; preds = %29, %23
  %33 = phi i64 [ %28, %23 ], [ %31, %29 ]
  %34 = call i32 @find_profile_by_name(ptr noundef %20, ptr noundef %10, i64 noundef %33)
  %35 = icmp ne i32 %34, 0
  br i1 %35, label %36, label %40

36:                                               ; preds = %32
  %37 = load ptr, ptr %6, align 8, !tbaa !15
  %38 = load ptr, ptr %10, align 8, !tbaa !17
  %39 = call i64 @sk_push(ptr noundef %37, ptr noundef %38)
  br label %41

40:                                               ; preds = %32
  call void @ERR_put_error(i32 noundef 16, i32 noundef 0, i32 noundef 212, ptr noundef @.str.4, i32 noundef 182)
  store i32 0, ptr %3, align 4
  store i32 1, ptr %9, align 4
  br label %48

41:                                               ; preds = %36
  %42 = load ptr, ptr %7, align 8, !tbaa !11
  %43 = icmp ne ptr %42, null
  br i1 %43, label %44, label %47

44:                                               ; preds = %41
  %45 = load ptr, ptr %7, align 8, !tbaa !11
  %46 = getelementptr inbounds i8, ptr %45, i64 1
  store ptr %46, ptr %8, align 8, !tbaa !11
  br label %47

47:                                               ; preds = %44, %41
  store i32 0, ptr %9, align 4
  br label %48

48:                                               ; preds = %47, %40
  call void @llvm.lifetime.end.p0(i64 8, ptr %10) #4
  %49 = load i32, ptr %9, align 4
  switch i32 %49, label %57 [
    i32 0, label %50
  ]

50:                                               ; preds = %48
  br label %51

51:                                               ; preds = %50
  %52 = load ptr, ptr %7, align 8, !tbaa !11
  %53 = icmp ne ptr %52, null
  br i1 %53, label %17, label %54, !llvm.loop !19

54:                                               ; preds = %51
  %55 = load ptr, ptr %6, align 8, !tbaa !15
  %56 = load ptr, ptr %5, align 8, !tbaa !13
  store ptr %55, ptr %56, align 8, !tbaa !15
  store i32 1, ptr %3, align 4
  store i32 1, ptr %9, align 4
  br label %57

57:                                               ; preds = %54, %48, %15
  call void @llvm.lifetime.end.p0(i64 8, ptr %8) #4
  call void @llvm.lifetime.end.p0(i64 8, ptr %7) #4
  call void @llvm.lifetime.end.p0(i64 8, ptr %6) #4
  %58 = load i32, ptr %3, align 4
  ret i32 %58
}