; Function Attrs: nounwind uwtable
define internal fastcc range(i32 0, 2) i32 @ssl_ctx_make_profiles(ptr noundef %0, ptr noundef writeonly captures(none) %1) unnamed_addr #0 {
  %3 = tail call ptr @sk_new_null() #5
  %4 = icmp eq ptr %3, null
  br i1 %4, label %5, label %.preheader

5:                                                ; preds = %2
  tail call void @ERR_put_error(i32 noundef 16, i32 noundef 0, i32 noundef 211, ptr noundef nonnull @.str.4, i32 noundef 170) #5
  br label %28

.preheader:                                       ; preds = %2, %24
  %.015 = phi ptr [ %26, %24 ], [ %0, %2 ]
  %6 = tail call ptr @strchr(ptr noundef nonnull dereferenceable(1) %.015, i32 noundef 58) #6
  %.not = icmp eq ptr %6, null
  br i1 %.not, label %11, label %7

7:                                                ; preds = %.preheader
  %8 = ptrtoint ptr %6 to i64
  %9 = ptrtoint ptr %.015 to i64
  %10 = sub i64 %8, %9
  br label %13

11:                                               ; preds = %.preheader
  %12 = tail call i64 @strlen(ptr noundef nonnull dereferenceable(1) %.015) #6
  br label %13

13:                                               ; preds = %11, %7
  %14 = phi i64 [ %10, %7 ], [ %12, %11 ]
  br label %15

15:                                               ; preds = %21, %13
  %16 = phi ptr [ @.str, %13 ], [ %23, %21 ]
  %.014.i = phi ptr [ @kSRTPProfiles, %13 ], [ %22, %21 ]
  %17 = tail call i64 @strlen(ptr noundef nonnull dereferenceable(1) %16) #6
  %18 = icmp eq i64 %14, %17
  br i1 %18, label %19, label %21

19:                                               ; preds = %15
  %20 = tail call i32 @strncmp(ptr noundef nonnull %16, ptr noundef nonnull readonly %.015, i64 noundef %14) #6
  %.not12.i = icmp eq i32 %20, 0
  br i1 %.not12.i, label %24, label %21

21:                                               ; preds = %19, %15
  %22 = getelementptr inbounds nuw i8, ptr %.014.i, i64 16
  %23 = load ptr, ptr %22, align 8, !tbaa !6
  %.not.i = icmp eq ptr %23, null
  br i1 %.not.i, label %.thread, label %15, !llvm.loop !13

.thread:                                          ; preds = %21
  tail call void @ERR_put_error(i32 noundef 16, i32 noundef 0, i32 noundef 212, ptr noundef nonnull @.str.4, i32 noundef 182) #5
  br label %28

24:                                               ; preds = %19
  %25 = tail call i64 @sk_push(ptr noundef nonnull %3, ptr noundef nonnull %.014.i) #5
  %26 = getelementptr inbounds nuw i8, ptr %6, i64 1
  br i1 %.not, label %27, label %.preheader, !llvm.loop !15

27:                                               ; preds = %24
  store ptr %3, ptr %1, align 8, !tbaa !16
  br label %28

28:                                               ; preds = %.thread, %27, %5
  %.016 = phi i32 [ 0, %5 ], [ 1, %27 ], [ 0, %.thread ]
  ret i32 %.016
}